; Function Attrs: mustprogress uwtable
define dso_local void @_ZN31cmGeneratorExpressionDAGCheckerC2EPK17cmGeneratorTargetNSt7__cxx1112basic_stringIcSt11char_traitsIcESaIcEEEPK26GeneratorExpressionContentPS_(ptr noundef nonnull align 8 dereferenceable(126) initializes((0, 16)) %0, ptr noundef %1, ptr noundef nonnull %2, ptr noundef %3, ptr noundef %4) unnamed_addr #3 align 2 personality ptr @__gxx_personality_v0 {
  store ptr %4, ptr %0, align 8
  %6 = getelementptr inbounds nuw i8, ptr %0, i64 8
  store ptr %1, ptr %6, align 8
  %7 = getelementptr inbounds nuw i8, ptr %0, i64 16
  tail call void @_ZNSt7__cxx1112basic_stringIcSt11char_traitsIcESaIcEEC1EOS4_(ptr noundef nonnull align 8 dereferenceable(32) %7, ptr noundef nonnull align 8 dereferenceable(32) %2) #19
  %8 = getelementptr inbounds nuw i8, ptr %0, i64 56
  store i32 0, ptr %8, align 8
  %9 = getelementptr inbounds nuw i8, ptr %0, i64 64
  store ptr null, ptr %9, align 8
  %10 = getelementptr inbounds nuw i8, ptr %0, i64 72
  store ptr %8, ptr %10, align 8
  %11 = getelementptr inbounds nuw i8, ptr %0, i64 80
  store ptr %8, ptr %11, align 8
  %12 = getelementptr inbounds nuw i8, ptr %0, i64 88
  store i64 0, ptr %12, align 8
  %13 = getelementptr inbounds nuw i8, ptr %0, i64 96
  store ptr %3, ptr %13, align 8
  %14 = getelementptr inbounds nuw i8, ptr %0, i64 104
  tail call void @llvm.memset.p0.i64(ptr noundef nonnull align 8 dereferenceable(16) %14, i8 0, i64 16, i1 false)
  invoke void @_ZN12cmConstStackI17cmListFileContext19cmListFileBacktraceEC2Ev(ptr noundef nonnull align 8 dereferenceable(16) %14)
          to label %_ZN19cmListFileBacktraceC2Ev.exit unwind label %18

_ZN19cmListFileBacktraceC2Ev.exit:                ; preds = %5
  %15 = getelementptr inbounds nuw i8, ptr %0, i64 124
  store i8 0, ptr %15, align 4
  %16 = getelementptr inbounds nuw i8, ptr %0, i64 125
  store i8 0, ptr %16, align 1
  invoke void @_ZN31cmGeneratorExpressionDAGChecker10InitializeEv(ptr noundef nonnull align 8 dereferenceable(126) %0)
          to label %17 unwind label %20

17:                                               ; preds = %_ZN19cmListFileBacktraceC2Ev.exit
  ret void

18:                                               ; preds = %5
  %19 = landingpad { ptr, i32 }
          cleanup
  br label %22

20:                                               ; preds = %_ZN19cmListFileBacktraceC2Ev.exit
  %21 = landingpad { ptr, i32 }
          cleanup
  tail call void @_ZN19cmListFileBacktraceD2Ev(ptr noundef nonnull align 8 dereferenceable(16) %14) #19
  br label %22

22:                                               ; preds = %20, %18
  %.pn = phi { ptr, i32 } [ %21, %20 ], [ %19, %18 ]
  %23 = getelementptr inbounds nuw i8, ptr %0, i64 48
  tail call void @_ZNSt3mapIPK17cmGeneratorTargetSt3setINSt7__cxx1112basic_stringIcSt11char_traitsIcESaIcEEESt4lessIS9_ESaIS9_EESA_IS2_ESaISt4pairIKS2_SD_EEED2Ev(ptr noundef nonnull align 8 dereferenceable(48) %23) #19
  tail call void @_ZNSt7__cxx1112basic_stringIcSt11char_traitsIcESaIcEED1Ev(ptr noundef nonnull align 8 dereferenceable(32) %7) #19
  resume { ptr, i32 } %.pn
}